target datalayout = "e-m:e-p270:32:32-p271:32:32-p272:64:64-i64:64-i128:128-f80:128-n8:16:32:64-S128"
target triple = "x86_64-unknown-linux-gnu"

%"class.v8::IndirectHandleBase" = type { ptr }
%"class.node::v8_utils::BindingData" = type { %"class.node::SnapshotableObject.base", %"class.node::AliasedBufferBase", %"class.node::AliasedBufferBase", %"class.node::AliasedBufferBase", ptr }
%"class.node::SnapshotableObject.base" = type <{ %"class.node::BaseObject", i8 }>
%"class.node::BaseObject" = type { %"class.node::MemoryRetainer", %"class.v8::Global", ptr, ptr }
%"class.node::MemoryRetainer" = type { ptr }
%"class.v8::Global" = type { %"class.v8::PersistentBase" }
%"class.v8::PersistentBase" = type { %"class.v8::IndirectHandleBase" }
%"class.node::AliasedBufferBase" = type { %"class.node::MemoryRetainer", ptr, i64, i64, ptr, %"class.v8::Global.0", ptr }
%"class.v8::Global.0" = type { %"class.v8::PersistentBase.1" }
%"class.v8::PersistentBase.1" = type { %"class.v8::IndirectHandleBase" }
%"class.node::AliasedBufferBase<double, v8::Float64Array>::Reference" = type { ptr, i64 }
%"class.v8::HeapCodeStatistics" = type { i64, i64, i64, i64 }

; Function Attrs: mustprogress nounwind uwtable
define linkonce_odr dso_local void @_ZN4node17AliasedBufferBaseIdN2v812Float64ArrayEE8SetValueEmd(ptr noundef nonnull align 8 dereferenceable(56) %this, i64 noundef %index, double noundef %value) #4 comdat align 2 {
entry:
  %this.addr = alloca ptr, align 8
  %index.addr = alloca i64, align 8
  %value.addr = alloca double, align 8
  store ptr %this, ptr %this.addr, align 8
  store i64 %index, ptr %index.addr, align 8
  store double %value, ptr %value.addr, align 8
  %this1 = load ptr, ptr %this.addr, align 8
  %0 = load double, ptr %value.addr, align 8
  %buffer_ = getelementptr inbounds %"class.node::AliasedBufferBase", ptr %this1, i32 0, i32 4
  %1 = load ptr, ptr %buffer_, align 8
  %2 = load i64, ptr %index.addr, align 8
  %arrayidx = getelementptr inbounds double, ptr %1, i64 %2
  store double %0, ptr %arrayidx, align 8
  ret void
}

; Function Attrs: mustprogress nounwind uwtable
define linkonce_odr dso_local void @_ZN4node17AliasedBufferBaseIdN2v812Float64ArrayEE9ReferenceC2EPS3_m(ptr noundef nonnull align 8 dereferenceable(16) %this, ptr noundef %aliased_buffer, i64 noundef %index) unnamed_addr #4 comdat align 2 {
entry:
  %this.addr = alloca ptr, align 8
  %aliased_buffer.addr = alloca ptr, align 8
  %index.addr = alloca i64, align 8
  store ptr %this, ptr %this.addr, align 8
  store ptr %aliased_buffer, ptr %aliased_buffer.addr, align 8
  store i64 %index, ptr %index.addr, align 8
  %this1 = load ptr, ptr %this.addr, align 8
  %aliased_buffer_ = getelementptr inbounds %"class.node::AliasedBufferBase<double, v8::Float64Array>::Reference", ptr %this1, i32 0, i32 0
  %0 = load ptr, ptr %aliased_buffer.addr, align 8
  store ptr %0, ptr %aliased_buffer_, align 8
  %index_ = getelementptr inbounds %"class.node::AliasedBufferBase<double, v8::Float64Array>::Reference", ptr %this1, i32 0, i32 1
  %1 = load i64, ptr %index.addr, align 8
  store i64 %1, ptr %index_, align 8
  ret void
}

; Function Attrs: mustprogress nounwind uwtable
define linkonce_odr dso_local noundef i64 @_ZN2v818HeapCodeStatistics26cpu_profiler_metadata_sizeEv(ptr noundef nonnull align 8 dereferenceable(32) %this) #4 comdat align 2 {
entry:
  %this.addr = alloca ptr, align 8
  store ptr %this, ptr %this.addr, align 8
  %this1 = load ptr, ptr %this.addr, align 8
  %cpu_profiler_metadata_size_ = getelementptr inbounds %"class.v8::HeapCodeStatistics", ptr %this1, i32 0, i32 3
  %0 = load i64, ptr %cpu_profiler_metadata_size_, align 8
  ret i64 %0
}

; Function Attrs: mustprogress nounwind uwtable
define linkonce_odr dso_local noundef i64 @_ZN2v818HeapCodeStatistics27external_script_source_sizeEv(ptr noundef nonnull align 8 dereferenceable(32) %this) #4 comdat align 2 {
entry:
  %this.addr = alloca ptr, align 8
  store ptr %this, ptr %this.addr, align 8
  %this1 = load ptr, ptr %this.addr, align 8
  %external_script_source_size_ = getelementptr inbounds %"class.v8::HeapCodeStatistics", ptr %this1, i32 0, i32 2
  %0 = load i64, ptr %external_script_source_size_, align 8
  ret i64 %0
}

; Function Attrs: mustprogress nounwind uwtable
define linkonce_odr dso_local noundef i64 @_ZN2v818HeapCodeStatistics26bytecode_and_metadata_sizeEv(ptr noundef nonnull align 8 dereferenceable(32) %this) #4 comdat align 2 {
entry:
  %this.addr = alloca ptr, align 8
  store ptr %this, ptr %this.addr, align 8
  %this1 = load ptr, ptr %this.addr, align 8
  %bytecode_and_metadata_size_ = getelementptr inbounds %"class.v8::HeapCodeStatistics", ptr %this1, i32 0, i32 1
  %0 = load i64, ptr %bytecode_and_metadata_size_, align 8
  ret i64 %0
}

; Function Attrs: mustprogress nounwind uwtable
define linkonce_odr dso_local noundef nonnull align 8 dereferenceable(16) ptr @_ZN4node17AliasedBufferBaseIdN2v812Float64ArrayEE9ReferenceaSERKd(ptr noundef nonnull align 8 dereferenceable(16) %this, ptr noundef nonnull align 8 dereferenceable(8) %val) #4 comdat align 2 {
entry:
  %this.addr = alloca ptr, align 8
  %val.addr = alloca ptr, align 8
  store ptr %this, ptr %this.addr, align 8
  store ptr %val, ptr %val.addr, align 8
  %this1 = load ptr, ptr %this.addr, align 8
  %aliased_buffer_ = getelementptr inbounds %"class.node::AliasedBufferBase<double, v8::Float64Array>::Reference", ptr %this1, i32 0, i32 0
  %0 = load ptr, ptr %aliased_buffer_, align 8
  %index_ = getelementptr inbounds %"class.node::AliasedBufferBase<double, v8::Float64Array>::Reference", ptr %this1, i32 0, i32 1
  %1 = load i64, ptr %index_, align 8
  %2 = load ptr, ptr %val.addr, align 8
  %3 = load double, ptr %2, align 8
  call void @_ZN4node17AliasedBufferBaseIdN2v812Float64ArrayEE8SetValueEmd(ptr noundef nonnull align 8 dereferenceable(56) %0, i64 noundef %1, double noundef %3)
  ret ptr %this1
}

; Function Attrs: mustprogress nounwind uwtable
define linkonce_odr dso_local void @_ZN4node17AliasedBufferBaseIdN2v812Float64ArrayEEixEm(ptr noalias sret(%"class.node::AliasedBufferBase<double, v8::Float64Array>::Reference") align 8 %agg.result, ptr noundef nonnull align 8 dereferenceable(56) %this, i64 noundef %index) #4 comdat align 2 {
entry:
  %result.ptr = alloca ptr, align 8
  %this.addr = alloca ptr, align 8
  %index.addr = alloca i64, align 8
  store ptr %agg.result, ptr %result.ptr, align 8
  store ptr %this, ptr %this.addr, align 8
  store i64 %index, ptr %index.addr, align 8
  %this1 = load ptr, ptr %this.addr, align 8
  %0 = load i64, ptr %index.addr, align 8
  call void @_ZN4node17AliasedBufferBaseIdN2v812Float64ArrayEE9ReferenceC2EPS3_m(ptr noundef nonnull align 8 dereferenceable(16) %agg.result, ptr noundef %this1, i64 noundef %0)
  ret void
}

; Function Attrs: mustprogress nounwind uwtable
define linkonce_odr dso_local noundef i64 @_ZN2v818HeapCodeStatistics22code_and_metadata_sizeEv(ptr noundef nonnull align 8 dereferenceable(32) %this) #4 comdat align 2 {
entry:
  %this.addr = alloca ptr, align 8
  store ptr %this, ptr %this.addr, align 8
  %this1 = load ptr, ptr %this.addr, align 8
  %code_and_metadata_size_ = getelementptr inbounds %"class.v8::HeapCodeStatistics", ptr %this1, i32 0, i32 0
  %0 = load i64, ptr %code_and_metadata_size_, align 8
  ret i64 %0
}

; Function Attrs: mustprogress nounwind uwtable
define dso_local void @_ZN4node8v8_utils30UpdateHeapCodeStatisticsBufferERKN2v820FunctionCallbackInfoINS1_5ValueEEE(ptr noundef nonnull align 8 dereferenceable(20) %args) #4 {
entry:
  %this.addr.i = alloca ptr, align 8
  %args.addr = alloca ptr, align 8
  %data = alloca ptr, align 8
  %s = alloca %"class.v8::HeapCodeStatistics", align 8
  %buffer = alloca ptr, align 8
  %ref.tmp = alloca double, align 8
  %ref.tmp4 = alloca %"class.node::AliasedBufferBase<double, v8::Float64Array>::Reference", align 8
  %ref.tmp6 = alloca double, align 8
  %ref.tmp9 = alloca %"class.node::AliasedBufferBase<double, v8::Float64Array>::Reference", align 8
  %ref.tmp11 = alloca double, align 8
  %ref.tmp14 = alloca %"class.node::AliasedBufferBase<double, v8::Float64Array>::Reference", align 8
  %ref.tmp16 = alloca double, align 8
  %ref.tmp19 = alloca %"class.node::AliasedBufferBase<double, v8::Float64Array>::Reference", align 8
  store ptr %args, ptr %args.addr, align 8
  %0 = load ptr, ptr %args.addr, align 8
  %call = call noundef ptr @_ZN4node5Realm14GetBindingDataINS_8v8_utils11BindingDataEEEPT_RKN2v820FunctionCallbackInfoINS6_5ValueEEE(ptr noundef nonnull align 8 dereferenceable(20) %0)
  store ptr %call, ptr %data, align 8
  call void @_ZN2v818HeapCodeStatisticsC1Ev(ptr noundef nonnull align 8 dereferenceable(32) %s)
  %1 = load ptr, ptr %args.addr, align 8
  store ptr %1, ptr %this.addr.i, align 8
  %this1.i = load ptr, ptr %this.addr.i, align 8
  %2 = load ptr, ptr %this1.i, align 8
  %arrayidx.i = getelementptr inbounds i64, ptr %2, i64 1
  %3 = load ptr, ptr %arrayidx.i, align 8
  %call2 = call noundef zeroext i1 @_ZN2v87Isolate32GetHeapCodeAndMetadataStatisticsEPNS_18HeapCodeStatisticsE(ptr noundef nonnull align 1 dereferenceable(1) %3, ptr noundef %s)
  %4 = load ptr, ptr %data, align 8
  %heap_code_statistics_buffer = getelementptr inbounds %"class.node::v8_utils::BindingData", ptr %4, i32 0, i32 3
  store ptr %heap_code_statistics_buffer, ptr %buffer, align 8
  %call3 = call noundef i64 @_ZN2v818HeapCodeStatistics22code_and_metadata_sizeEv(ptr noundef nonnull align 8 dereferenceable(32) %s)
  %conv = uitofp i64 %call3 to double
  store double %conv, ptr %ref.tmp, align 8
  %5 = load ptr, ptr %buffer, align 8
  call void @_ZN4node17AliasedBufferBaseIdN2v812Float64ArrayEEixEm(ptr sret(%"class.node::AliasedBufferBase<double, v8::Float64Array>::Reference") align 8 %ref.tmp4, ptr noundef nonnull align 8 dereferenceable(56) %5, i64 noundef 0)
  %call5 = call noundef nonnull align 8 dereferenceable(16) ptr @_ZN4node17AliasedBufferBaseIdN2v812Float64ArrayEE9ReferenceaSERKd(ptr noundef nonnull align 8 dereferenceable(16) %ref.tmp4, ptr noundef nonnull align 8 dereferenceable(8) %ref.tmp)
  %call7 = call noundef i64 @_ZN2v818HeapCodeStatistics26bytecode_and_metadata_sizeEv(ptr noundef nonnull align 8 dereferenceable(32) %s)
  %conv8 = uitofp i64 %call7 to double
  store double %conv8, ptr %ref.tmp6, align 8
  %6 = load ptr, ptr %buffer, align 8
  call void @_ZN4node17AliasedBufferBaseIdN2v812Float64ArrayEEixEm(ptr sret(%"class.node::AliasedBufferBase<double, v8::Float64Array>::Reference") align 8 %ref.tmp9, ptr noundef nonnull align 8 dereferenceable(56) %6, i64 noundef 1)
  %call10 = call noundef nonnull align 8 dereferenceable(16) ptr @_ZN4node17AliasedBufferBaseIdN2v812Float64ArrayEE9ReferenceaSERKd(ptr noundef nonnull align 8 dereferenceable(16) %ref.tmp9, ptr noundef nonnull align 8 dereferenceable(8) %ref.tmp6)
  %call12 = call noundef i64 @_ZN2v818HeapCodeStatistics27external_script_source_sizeEv(ptr noundef nonnull align 8 dereferenceable(32) %s)
  %conv13 = uitofp i64 %call12 to double
  store double %conv13, ptr %ref.tmp11, align 8
  %7 = load ptr, ptr %buffer, align 8
  call void @_ZN4node17AliasedBufferBaseIdN2v812Float64ArrayEEixEm(ptr sret(%"class.node::AliasedBufferBase<double, v8::Float64Array>::Reference") align 8 %ref.tmp14, ptr noundef nonnull align 8 dereferenceable(56) %7, i64 noundef 2)
  %call15 = call noundef nonnull align 8 dereferenceable(16) ptr @_ZN4node17AliasedBufferBaseIdN2v812Float64ArrayEE9ReferenceaSERKd(ptr noundef nonnull align 8 dereferenceable(16) %ref.tmp14, ptr noundef nonnull align 8 dereferenceable(8) %ref.tmp11)
  %call17 = call noundef i64 @_ZN2v818HeapCodeStatistics26cpu_profiler_metadata_sizeEv(ptr noundef nonnull align 8 dereferenceable(32) %s)
  %conv18 = uitofp i64 %call17 to double
  store double %conv18, ptr %ref.tmp16, align 8
  %8 = load ptr, ptr %buffer, align 8
  call void @_ZN4node17AliasedBufferBaseIdN2v812Float64ArrayEEixEm(ptr sret(%"class.node::AliasedBufferBase<double, v8::Float64Array>::Reference") align 8 %ref.tmp19, ptr noundef nonnull align 8 dereferenceable(56) %8, i64 noundef 3)
  %call20 = call noundef nonnull align 8 dereferenceable(16) ptr @_ZN4node17AliasedBufferBaseIdN2v812Float64ArrayEE9ReferenceaSERKd(ptr noundef nonnull align 8 dereferenceable(16) %ref.tmp19, ptr noundef nonnull align 8 dereferenceable(8) %ref.tmp16)
  ret void
}