; Function Attrs: mustprogress nounwind uwtable
define dso_local void @_ZN4node8v8_utils30UpdateHeapCodeStatisticsBufferERKN2v820FunctionCallbackInfoINS1_5ValueEEE(ptr noundef nonnull align 8 dereferenceable(20) %args) #3 {
entry:
  %s = alloca %"class.v8::HeapCodeStatistics", align 8
  %call = tail call noundef ptr @_ZN4node5Realm14GetBindingDataINS_8v8_utils11BindingDataEEEPT_RKN2v820FunctionCallbackInfoINS6_5ValueEEE(ptr noundef nonnull align 8 dereferenceable(20) %args)
  call void @_ZN2v818HeapCodeStatisticsC1Ev(ptr noundef nonnull align 8 dereferenceable(32) %s) #20
  %0 = load ptr, ptr %args, align 8
  %arrayidx.i = getelementptr inbounds i8, ptr %0, i64 8
  %1 = load ptr, ptr %arrayidx.i, align 8
  %call2 = call noundef zeroext i1 @_ZN2v87Isolate32GetHeapCodeAndMetadataStatisticsEPNS_18HeapCodeStatisticsE(ptr noundef nonnull align 1 dereferenceable(1) %1, ptr noundef nonnull %s) #20
  %2 = load i64, ptr %s, align 8
  %conv = uitofp i64 %2 to double
  %buffer_.i.i = getelementptr inbounds i8, ptr %call, i64 184
  %3 = load ptr, ptr %buffer_.i.i, align 8
  store double %conv, ptr %3, align 8
  %bytecode_and_metadata_size_.i = getelementptr inbounds i8, ptr %s, i64 8
  %4 = load i64, ptr %bytecode_and_metadata_size_.i, align 8
  %conv8 = uitofp i64 %4 to double
  %5 = load ptr, ptr %buffer_.i.i, align 8
  %arrayidx.i.i8 = getelementptr inbounds i8, ptr %5, i64 8
  store double %conv8, ptr %arrayidx.i.i8, align 8
  %external_script_source_size_.i = getelementptr inbounds i8, ptr %s, i64 16
  %6 = load i64, ptr %external_script_source_size_.i, align 8
  %conv13 = uitofp i64 %6 to double
  %7 = load ptr, ptr %buffer_.i.i, align 8
  %arrayidx.i.i12 = getelementptr inbounds i8, ptr %7, i64 16
  store double %conv13, ptr %arrayidx.i.i12, align 8
  %cpu_profiler_metadata_size_.i = getelementptr inbounds i8, ptr %s, i64 24
  %8 = load i64, ptr %cpu_profiler_metadata_size_.i, align 8
  %conv18 = uitofp i64 %8 to double
  %9 = load ptr, ptr %buffer_.i.i, align 8
  %arrayidx.i.i16 = getelementptr inbounds i8, ptr %9, i64 24
  store double %conv18, ptr %arrayidx.i.i16, align 8
  ret void
}